Certificate:
    Data:
        Version: 3 (0x2)
        Serial Number: 1 (0x1)
        Signature Algorithm: sha1WithRSAEncryption
        Issuer: C=cn, ST=zj, L=hz, O=nll, OU=nll, CN=192.168.1.118/emailAddress=service@game918.com
        Validity
            Not Before: May 27 08:28:44 2014 GMT
            Not After : May 27 08:28:44 2015 GMT
        Subject: C=cn, ST=zj, O=nll, OU=nll, CN=192.168.1.118/emailAddress=service@game918.com
        Subject Public Key Info:
            Public Key Algorithm: rsaEncryption
            RSA Public Key: (1024 bit)
                Modulus (1024 bit):
                    00:b1:11:73:d7:28:4d:5e:cb:02:c2:a4:55:8b:08:
                    b5:96:bb:3e:71:10:87:88:ef:b3:6c:e4:b3:98:14:
                    95:1b:ac:92:08:f8:60:29:15:ee:87:95:48:5e:23:
                    10:b3:fc:a8:b5:22:8a:61:0d:01:12:bf:3c:f2:f2:
                    1f:34:8d:5b:ce:05:f8:5e:5c:d4:ae:7f:b6:cf:54:
                    dc:9d:3b:34:96:a1:24:0f:b8:96:75:2b:60:f1:37:
                    bb:1c:81:dc:25:69:60:93:d3:18:74:6a:f2:5d:b6:
                    3d:7c:48:fe:18:a3:42:e6:26:43:a0:ba:69:05:db:
                    a2:80:7a:79:fe:ef:d6:7f:8f
                Exponent: 65537 (0x10001)
        X509v3 extensions:
            X509v3 Basic Constraints: 
                CA:FALSE
            Netscape Comment: 
                OpenSSL Generated Certificate
            X509v3 Subject Key Identifier: 
                DE:67:43:C3:93:3D:F8:8E:F4:93:51:68:FD:6F:10:86:D7:18:79:B0
            X509v3 Authority Key Identifier: 
                keyid:CE:56:2D:B5:EA:E0:14:FB:AD:0C:B9:6E:5C:28:C7:F2:11:C2:1A:EC

    Signature Algorithm: sha1WithRSAEncryption
        1f:45:f4:a9:73:ef:ee:27:8f:d9:89:b9:e0:80:5d:62:7f:f6:
        f5:c1:4c:28:3a:e1:e9:3f:e4:3c:26:10:4c:8c:5f:8b:b9:6a:
        06:51:36:2f:62:3d:ba:4d:d6:c6:be:5d:0e:8c:28:33:29:04:
        e9:fa:54:b2:93:ce:8b:d3:e8:ec:7e:4e:9e:92:23:c2:ee:40:
        23:28:80:33:7f:c2:e2:af:d4:9e:52:bc:f7:f0:0d:52:16:97:
        a1:c0:e3:17:58:af:dd:54:bf:34:38:4a:04:06:a6:e5:b6:29:
        c1:cd:a4:03:4e:14:f6:cb:ef:04:7d:a5:1c:68:6e:e7:07:08:
        90:8e
-----BEGIN CERTIFICATE-----
MIIC4jCCAkugAwIBAgIBATANBgkqhkiG9w0BAQUFADB/MQswCQYDVQQGEwJjbjEL
MAkGA1UECBMCemoxCzAJBgNVBAcTAmh6MQwwCgYDVQQKEwNubGwxDDAKBgNVBAsT
A25sbDEWMBQGA1UEAxMNMTkyLjE2OC4xLjExODEiMCAGCSqGSIb3DQEJARYTc2Vy
dmljZUBnYW1lOTE4LmNvbTAeFw0xNDA1MjcwODI4NDRaFw0xNTA1MjcwODI4NDRa
MHIxCzAJBgNVBAYTAmNuMQswCQYDVQQIEwJ6ajEMMAoGA1UEChMDbmxsMQwwCgYD
VQQLEwNubGwxFjAUBgNVBAMTDTE5Mi4xNjguMS4xMTgxIjAgBgkqhkiG9w0BCQEW
E3NlcnZpY2VAZ2FtZTkxOC5jb20wgZ8wDQYJKoZIhvcNAQEBBQADgY0AMIGJAoGB
ALERc9coTV7LAsKkVYsItZa7PnEQh4jvs2zks5gUlRuskgj4YCkV7oeVSF4jELP8
qLUiimENARK/PPLyHzSNW84F+F5c1K5/ts9U3J07NJahJA+4lnUrYPE3uxyB3CVp
YJPTGHRq8l22PXxI/hijQuYmQ6C6aQXbooB6ef7v1n+PAgMBAAGjezB5MAkGA1Ud
EwQCMAAwLAYJYIZIAYb4QgENBB8WHU9wZW5TU0wgR2VuZXJhdGVkIENlcnRpZmlj
YXRlMB0GA1UdDgQWBBTeZ0PDkz34jvSTUWj9bxCG1xh5sDAfBgNVHSMEGDAWgBTO
Vi216uAU+60MuW5cKMfyEcIa7DANBgkqhkiG9w0BAQUFAAOBgQAfRfSpc+/uJ4/Z
ibnggF1if/b1wUwoOuHpP+Q8JhBMjF+LuWoGUTYvYj26TdbGvl0OjCgzKQTp+lSy
k86L0+jsfk6ekiPC7kAjKIAzf8Lir9SeUrz38A1SFpehwOMXWK/dVL80OEoEBqbl
tinBzaQDThT2y+8EfaUcaG7nBwiQjg==
-----END CERTIFICATE-----
